(dp0
cnumpy.core.multiarray
scalar
p1
(cnumpy
dtype
p2
(S'S19'
p3
I0
I1
tp4
Rp5
(I3
S'|'
p6
NNNI19
I1
I0
tp7
bS'movie_info_idx.info'
p8
tp9
Rp10
I69
sg1
(g2
(S'S15'
p11
I0
I1
tp12
Rp13
(I3
S'|'
p14
NNNI15
I1
I0
tp15
bS'company_type.id'
p16
tp17
Rp18
I43
sg1
(g2
(S'S10'
p19
I0
I1
tp20
Rp21
(I3
S'|'
p22
NNNI10
I1
I0
tp23
bS'keyword.id'
p24
tp25
Rp26
I51
sg1
(g2
(S'S18'
p27
I0
I1
tp28
Rp29
(I3
S'|'
p30
NNNI18
I1
I0
tp31
bS'cast_info.nr_order'
p32
tp33
Rp34
I23
sg1
(g2
(S'S19'
p35
I0
I1
tp36
Rp37
(I3
S'|'
p38
NNNI19
I1
I0
tp39
bS'comp_cast_type.kind'
p40
tp41
Rp42
I35
sg1
(g2
(S'S23'
p43
I0
I1
tp44
Rp45
(I3
S'|'
p46
NNNI23
I1
I0
tp47
bS'char_name.surname_pcode'
p48
tp49
Rp50
I33
sg1
(g2
(S'S26'
p51
I0
I1
tp52
Rp53
(I3
S'|'
p54
NNNI26
I1
I0
tp55
bS'company_name.name_pcode_sf'
p56
tp57
Rp58
I42
sg1
(g2
(S'S23'
p59
I0
I1
tp60
Rp61
(I3
S'|'
p62
NNNI23
I1
I0
tp63
bS'char_name.name_pcode_nf'
p64
tp65
Rp66
I32
sg1
(g2
(S'S18'
p67
I0
I1
tp68
Rp69
(I3
S'|'
p70
NNNI18
I1
I0
tp71
bS'name.name_pcode_nf'
p72
tp73
Rp74
I87
sg1
(g2
(S'S20'
p75
I0
I1
tp76
Rp77
(I3
S'|'
p78
NNNI20
I1
I0
tp79
bS'char_name.imdb_index'
p80
tp81
Rp82
I29
sg1
(g2
(S'S14'
p83
I0
I1
tp84
Rp85
(I3
S'|'
p86
NNNI14
I1
I0
tp87
bS'person_info.id'
p88
tp89
Rp90
I89
sg1
(g2
(S'S17'
p91
I0
I1
tp92
Rp93
(I3
S'|'
p94
NNNI17
I1
I0
tp95
bS'company_type.kind'
p96
tp97
Rp98
I44
sg1
(g2
(S'S15'
p99
I0
I1
tp100
Rp101
(I3
S'|'
p102
NNNI15
I1
I0
tp103
bS'aka_title.title'
p104
tp105
Rp106
I19
sg1
(g2
(S'S13'
p107
I0
I1
tp108
Rp109
(I3
S'|'
p110
NNNI13
I1
I0
tp111
bS'aka_name.name'
p112
tp113
Rp114
I3
sg1
(g2
(S'S20'
p115
I0
I1
tp116
Rp117
(I3
S'|'
p118
NNNI20
I1
I0
tp119
bS'movie_companies.note'
p120
tp121
Rp122
I62
sg1
(g2
(S'S19'
p123
I0
I1
tp124
Rp125
(I3
S'|'
p126
NNNI19
I1
I0
tp127
bS'title.episode_of_id'
p128
tp129
Rp130
I97
sg1
(g2
(S'S11'
p131
I0
I1
tp132
Rp133
(I3
S'|'
p134
NNNI11
I1
I0
tp135
bS'name.md5sum'
p136
tp137
Rp138
I84
sg1
(g2
(S'S21'
p139
I0
I1
tp140
Rp141
(I3
S'|'
p142
NNNI21
I1
I0
tp143
bS'keyword.phonetic_code'
p144
tp145
Rp146
I53
sg1
(g2
(S'S24'
p147
I0
I1
tp148
Rp149
(I3
S'|'
p150
NNNI24
I1
I0
tp151
bS'person_info.info_type_id'
p152
tp153
Rp154
I91
sg1
(g2
(S'S14'
p155
I0
I1
tp156
Rp157
(I3
S'|'
p158
NNNI14
I1
I0
tp159
bS'aka_title.note'
p160
tp161
Rp162
I15
sg1
(g2
(S'S14'
p163
I0
I1
tp164
Rp165
(I3
S'|'
p166
NNNI14
I1
I0
tp167
bS'link_type.link'
p168
tp169
Rp170
I57
sg1
(g2
(S'S23'
p171
I0
I1
tp172
Rp173
(I3
S'|'
p174
NNNI23
I1
I0
tp175
bS'movie_link.link_type_id'
p176
tp177
Rp178
I77
sg1
(g2
(S'S15'
p179
I0
I1
tp180
Rp181
(I3
S'|'
p182
NNNI15
I1
I0
tp183
bS'movie_info.note'
p184
tp185
Rp186
I67
sg1
(g2
(S'S12'
p187
I0
I1
tp188
Rp189
(I3
S'|'
p190
NNNI12
I1
I0
tp191
bS'title.md5sum'
p192
tp193
Rp194
I102
sg1
(g2
(S'S16'
p195
I0
I1
tp196
Rp197
(I3
S'|'
p198
NNNI16
I1
I0
tp199
bS'complete_cast.id'
p200
tp201
Rp202
I45
sg1
(g2
(S'S12'
p203
I0
I1
tp204
Rp205
(I3
S'|'
p206
NNNI12
I1
I0
tp207
bS'aka_title.id'
p208
tp209
Rp210
I10
sg1
(g2
(S'S17'
p211
I0
I1
tp212
Rp213
(I3
S'|'
p214
NNNI17
I1
I0
tp215
bS'aka_title.kind_id'
p216
tp217
Rp218
I12
sg1
(g2
(S'S14'
p219
I0
I1
tp220
Rp221
(I3
S'|'
p222
NNNI14
I1
I0
tp223
bS'kind_type.kind'
p224
tp225
Rp226
I55
sg1
(g2
(S'S16'
p227
I0
I1
tp228
Rp229
(I3
S'|'
p230
NNNI16
I1
I0
tp231
bS'title.episode_nr'
p232
tp233
Rp234
I96
sg1
(g2
(S'S12'
p235
I0
I1
tp236
Rp237
(I3
S'|'
p238
NNNI12
I1
I0
tp239
bS'char_name.id'
p240
tp241
Rp242
I27
sg1
(g2
(S'S23'
p243
I0
I1
tp244
Rp245
(I3
S'|'
p246
NNNI23
I1
I0
tp247
bS'aka_title.episode_of_id'
p248
tp249
Rp250
I9
sg1
(g2
(S'S25'
p251
I0
I1
tp252
Rp253
(I3
S'|'
p254
NNNI25
I1
I0
tp255
bS'aka_title.production_year'
p256
tp257
Rp258
I17
sg1
(g2
(S'S24'
p259
I0
I1
tp260
Rp261
(I3
S'|'
p262
NNNI24
I1
I0
tp263
bS'complete_cast.subject_id'
p264
tp265
Rp266
I48
sg1
(g2
(S'S27'
p267
I0
I1
tp268
Rp269
(I3
S'|'
p270
NNNI27
I1
I0
tp271
bS'movie_info_idx.info_type_id'
p272
tp273
Rp274
I70
sg1
(g2
(S'S19'
p275
I0
I1
tp276
Rp277
(I3
S'|'
p278
NNNI19
I1
I0
tp279
bS'aka_name.imdb_index'
p280
tp281
Rp282
I1
sg1
(g2
(S'S14'
p283
I0
I1
tp284
Rp285
(I3
S'|'
p286
NNNI14
I1
I0
tp287
bS'info_type.info'
p288
tp289
Rp290
I50
sg1
(g2
(S'S12'
p291
I0
I1
tp292
Rp293
(I3
S'|'
p294
NNNI12
I1
I0
tp295
bS'info_type.id'
p296
tp297
Rp298
I49
sg1
(g2
(S'S16'
p299
I0
I1
tp300
Rp301
(I3
S'|'
p302
NNNI16
I1
I0
tp303
bS'title.imdb_index'
p304
tp305
Rp306
I100
sg1
(g2
(S'S8'
p307
I0
I1
tp308
Rp309
(I3
S'|'
p310
NNNI8
I1
I0
tp311
bS'title.id'
p312
tp313
Rp314
I98
sg1
(g2
(S'S14'
p315
I0
I1
tp316
Rp317
(I3
S'|'
p318
NNNI14
I1
I0
tp319
bS'role_type.role'
p320
tp321
Rp322
I95
sg1
(g2
(S'S15'
p323
I0
I1
tp324
Rp325
(I3
S'|'
p326
NNNI15
I1
I0
tp327
bS'aka_name.md5sum'
p328
tp329
Rp330
I2
sg1
(g2
(S'S11'
p331
I0
I1
tp332
Rp333
(I3
S'|'
p334
NNNI11
I1
I0
tp335
bS'name.gender'
p336
tp337
Rp338
I80
sg1
(g2
(S'S22'
p339
I0
I1
tp340
Rp341
(I3
S'|'
p342
NNNI22
I1
I0
tp343
bS'aka_name.name_pcode_nf'
p344
tp345
Rp346
I5
sg1
(g2
(S'S12'
p347
I0
I1
tp348
Rp349
(I3
S'|'
p350
NNNI12
I1
I0
tp351
bS'role_type.id'
p352
tp353
Rp354
I94
sg1
(g2
(S'S17'
p355
I0
I1
tp356
Rp357
(I3
S'|'
p358
NNNI17
I1
I0
tp359
bS'cast_info.role_id'
p360
tp361
Rp362
I26
sg1
(g2
(S'S22'
p363
I0
I1
tp364
Rp365
(I3
S'|'
p366
NNNI22
I1
I0
tp367
bS'aka_name.surname_pcode'
p368
tp369
Rp370
I7
sg1
(g2
(S'S16'
p371
I0
I1
tp372
Rp373
(I3
S'|'
p374
NNNI16
I1
I0
tp375
bS'char_name.md5sum'
p376
tp377
Rp378
I30
sg1
(g2
(S'S20'
p379
I0
I1
tp380
Rp381
(I3
S'|'
p382
NNNI20
I1
I0
tp383
bS'aka_title.imdb_index'
p384
tp385
Rp386
I11
sg1
(g2
(S'S24'
p387
I0
I1
tp388
Rp389
(I3
S'|'
p390
NNNI24
I1
I0
tp391
bS'movie_companies.movie_id'
p392
tp393
Rp394
I61
sg1
(g2
(S'S17'
p395
I0
I1
tp396
Rp397
(I3
S'|'
p398
NNNI17
I1
I0
tp399
bS'char_name.imdb_id'
p400
tp401
Rp402
I28
sg1
(g2
(S'S7'
p403
I0
I1
tp404
Rp405
(I3
S'|'
p406
NNNI7
I1
I0
tp407
bS'name.id'
p408
tp409
Rp410
I81
sg1
(g2
(S'S16'
p411
I0
I1
tp412
Rp413
(I3
S'|'
p414
NNNI16
I1
I0
tp415
bS'aka_title.md5sum'
p416
tp417
Rp418
I13
sg1
(g2
(S'S13'
p419
I0
I1
tp420
Rp421
(I3
S'|'
p422
NNNI13
I1
I0
tp423
bS'title.kind_id'
p424
tp425
Rp426
I101
sg1
(g2
(S'S31'
p427
I0
I1
tp428
Rp429
(I3
S'|'
p430
NNNI31
I1
I0
tp431
bS'movie_companies.company_type_id'
p432
tp433
Rp434
I59
sg1
(g2
(S'S18'
p435
I0
I1
tp436
Rp437
(I3
S'|'
p438
NNNI18
I1
I0
tp439
bS'title.series_years'
p440
tp441
Rp442
I106
sg1
(g2
(S'S9'
p443
I0
I1
tp444
Rp445
(I3
S'|'
p446
NNNI9
I1
I0
tp447
bS'name.name'
p448
tp449
Rp450
I85
sg1
(g2
(S'S18'
p451
I0
I1
tp452
Rp453
(I3
S'|'
p454
NNNI18
I1
I0
tp455
bS'name.name_pcode_cf'
p456
tp457
Rp458
I86
sg1
(g2
(S'S15'
p459
I0
I1
tp460
Rp461
(I3
S'|'
p462
NNNI15
I1
I0
tp463
bS'keyword.keyword'
p464
tp465
Rp466
I52
sg1
(g2
(S'S24'
p467
I0
I1
tp468
Rp469
(I3
S'|'
p470
NNNI24
I1
I0
tp471
bS'cast_info.person_role_id'
p472
tp473
Rp474
I25
sg1
(g2
(S'S15'
p475
I0
I1
tp476
Rp477
(I3
S'|'
p478
NNNI15
I1
I0
tp479
bS'movie_info.info'
p480
tp481
Rp482
I64
sg1
(g2
(S'S18'
p483
I0
I1
tp484
Rp485
(I3
S'|'
p486
NNNI18
I1
I0
tp487
bS'movie_companies.id'
p488
tp489
Rp490
I60
sg1
(g2
(S'S13'
p491
I0
I1
tp492
Rp493
(I3
S'|'
p494
NNNI13
I1
I0
tp495
bS'title.imdb_id'
p496
tp497
Rp498
I99
sg1
(g2
(S'S23'
p499
I0
I1
tp500
Rp501
(I3
S'|'
p502
NNNI23
I1
I0
tp503
bS'movie_info.info_type_id'
p504
tp505
Rp506
I65
sg1
(g2
(S'S19'
p507
I0
I1
tp508
Rp509
(I3
S'|'
p510
NNNI19
I1
I0
tp511
bS'movie_info_idx.note'
p512
tp513
Rp514
I72
sg1
(g2
(S'S21'
p515
I0
I1
tp516
Rp517
(I3
S'|'
p518
NNNI21
I1
I0
tp519
bS'title.production_year'
p520
tp521
Rp522
I104
sg1
(g2
(S'S12'
p523
I0
I1
tp524
Rp525
(I3
S'|'
p526
NNNI12
I1
I0
tp527
bS'kind_type.id'
p528
tp529
Rp530
I54
sg1
(g2
(S'S16'
p531
I0
I1
tp532
Rp533
(I3
S'|'
p534
NNNI16
I1
I0
tp535
bS'person_info.note'
p536
tp537
Rp538
I92
sg1
(g2
(S'S14'
p539
I0
I1
tp540
Rp541
(I3
S'|'
p542
NNNI14
I1
I0
tp543
bS'cast_info.note'
p544
tp545
Rp546
I22
sg1
(g2
(S'S17'
p547
I0
I1
tp548
Rp549
(I3
S'|'
p550
NNNI17
I1
I0
tp551
bS'movie_info_idx.id'
p552
tp553
Rp554
I68
sg1
(g2
(S'S11'
p555
I0
I1
tp556
Rp557
(I3
S'|'
p558
NNNI11
I1
I0
tp559
bS'aka_name.id'
p560
tp561
Rp562
I0
sg1
(g2
(S'S25'
p563
I0
I1
tp564
Rp565
(I3
S'|'
p566
NNNI25
I1
I0
tp567
bS'company_name.country_code'
p568
tp569
Rp570
I36
sg1
(g2
(S'S26'
p571
I0
I1
tp572
Rp573
(I3
S'|'
p574
NNNI26
I1
I0
tp575
bS'company_name.name_pcode_nf'
p576
tp577
Rp578
I41
sg1
(g2
(S'S14'
p579
I0
I1
tp580
Rp581
(I3
S'|'
p582
NNNI14
I1
I0
tp583
bS'char_name.name'
p584
tp585
Rp586
I31
sg1
(g2
(S'S24'
p587
I0
I1
tp588
Rp589
(I3
S'|'
p590
NNNI24
I1
I0
tp591
bS'movie_keyword.keyword_id'
p592
tp593
Rp594
I74
sg1
(g2
(S'S20'
p595
I0
I1
tp596
Rp597
(I3
S'|'
p598
NNNI20
I1
I0
tp599
bS'company_name.imdb_id'
p600
tp601
Rp602
I38
sg1
(g2
(S'S19'
p603
I0
I1
tp604
Rp605
(I3
S'|'
p606
NNNI19
I1
I0
tp607
bS'movie_link.movie_id'
p608
tp609
Rp610
I79
sg1
(g2
(S'S18'
p611
I0
I1
tp612
Rp613
(I3
S'|'
p614
NNNI18
I1
I0
tp615
bS'name.surname_pcode'
p616
tp617
Rp618
I88
sg1
(g2
(S'S26'
p619
I0
I1
tp620
Rp621
(I3
S'|'
p622
NNNI26
I1
I0
tp623
bS'movie_companies.company_id'
p624
tp625
Rp626
I58
sg1
(g2
(S'S12'
p627
I0
I1
tp628
Rp629
(I3
S'|'
p630
NNNI12
I1
I0
tp631
bS'cast_info.id'
p632
tp633
Rp634
I20
sg1
(g2
(S'S11'
p635
I0
I1
tp636
Rp637
(I3
S'|'
p638
NNNI11
I1
I0
tp639
bS'title.title'
p640
tp641
Rp642
I107
sg1
(g2
(S'S19'
p643
I0
I1
tp644
Rp645
(I3
S'|'
p646
NNNI19
I1
I0
tp647
bS'movie_info.movie_id'
p648
tp649
Rp650
I66
sg1
(g2
(S'S20'
p651
I0
I1
tp652
Rp653
(I3
S'|'
p654
NNNI20
I1
I0
tp655
bS'aka_title.episode_nr'
p656
tp657
Rp658
I8
sg1
(g2
(S'S15'
p659
I0
I1
tp660
Rp661
(I3
S'|'
p662
NNNI15
I1
I0
tp663
bS'title.season_nr'
p664
tp665
Rp666
I105
sg1
(g2
(S'S12'
p667
I0
I1
tp668
Rp669
(I3
S'|'
p670
NNNI12
I1
I0
tp671
bS'link_type.id'
p672
tp673
Rp674
I56
sg1
(g2
(S'S21'
p675
I0
I1
tp676
Rp677
(I3
S'|'
p678
NNNI21
I1
I0
tp679
bS'person_info.person_id'
p680
tp681
Rp682
I93
sg1
(g2
(S'S16'
p683
I0
I1
tp684
Rp685
(I3
S'|'
p686
NNNI16
I1
I0
tp687
bS'movie_keyword.id'
p688
tp689
Rp690
I73
sg1
(g2
(S'S19'
p691
I0
I1
tp692
Rp693
(I3
S'|'
p694
NNNI19
I1
I0
tp695
bS'cast_info.person_id'
p696
tp697
Rp698
I24
sg1
(g2
(S'S22'
p699
I0
I1
tp700
Rp701
(I3
S'|'
p702
NNNI22
I1
I0
tp703
bS'complete_cast.movie_id'
p704
tp705
Rp706
I46
sg1
(g2
(S'S13'
p707
I0
I1
tp708
Rp709
(I3
S'|'
p710
NNNI13
I1
I0
tp711
bS'movie_info.id'
p712
tp713
Rp714
I63
sg1
(g2
(S'S12'
p715
I0
I1
tp716
Rp717
(I3
S'|'
p718
NNNI12
I1
I0
tp719
bS'name.imdb_id'
p720
tp721
Rp722
I82
sg1
(g2
(S'S18'
p723
I0
I1
tp724
Rp725
(I3
S'|'
p726
NNNI18
I1
I0
tp727
bS'aka_name.person_id'
p728
tp729
Rp730
I6
sg1
(g2
(S'S18'
p731
I0
I1
tp732
Rp733
(I3
S'|'
p734
NNNI18
I1
I0
tp735
bS'aka_title.movie_id'
p736
tp737
Rp738
I14
sg1
(g2
(S'S23'
p739
I0
I1
tp740
Rp741
(I3
S'|'
p742
NNNI23
I1
I0
tp743
bS'aka_title.phonetic_code'
p744
tp745
Rp746
I16
sg1
(g2
(S'S15'
p747
I0
I1
tp748
Rp749
(I3
S'|'
p750
NNNI15
I1
I0
tp751
bS'company_name.id'
p752
tp753
Rp754
I37
sg1
(g2
(S'S19'
p755
I0
I1
tp756
Rp757
(I3
S'|'
p758
NNNI19
I1
I0
tp759
bS'aka_title.season_nr'
p760
tp761
Rp762
I18
sg1
(g2
(S'S19'
p763
I0
I1
tp764
Rp765
(I3
S'|'
p766
NNNI19
I1
I0
tp767
bS'company_name.md5sum'
p768
tp769
Rp770
I39
sg1
(g2
(S'S18'
p771
I0
I1
tp772
Rp773
(I3
S'|'
p774
NNNI18
I1
I0
tp775
bS'cast_info.movie_id'
p776
tp777
Rp778
I21
sg1
(g2
(S'S26'
p779
I0
I1
tp780
Rp781
(I3
S'|'
p782
NNNI26
I1
I0
tp783
bS'movie_link.linked_movie_id'
p784
tp785
Rp786
I78
sg1
(g2
(S'S16'
p787
I0
I1
tp788
Rp789
(I3
S'|'
p790
NNNI16
I1
I0
tp791
bS'person_info.info'
p792
tp793
Rp794
I90
sg1
(g2
(S'S19'
p795
I0
I1
tp796
Rp797
(I3
S'|'
p798
NNNI19
I1
I0
tp799
bS'title.phonetic_code'
p800
tp801
Rp802
I103
sg1
(g2
(S'S22'
p803
I0
I1
tp804
Rp805
(I3
S'|'
p806
NNNI22
I1
I0
tp807
bS'movie_keyword.movie_id'
p808
tp809
Rp810
I75
sg1
(g2
(S'S13'
p811
I0
I1
tp812
Rp813
(I3
S'|'
p814
NNNI13
I1
I0
tp815
bS'movie_link.id'
p816
tp817
Rp818
I76
sg1
(g2
(S'S23'
p819
I0
I1
tp820
Rp821
(I3
S'|'
p822
NNNI23
I1
I0
tp823
bS'movie_info_idx.movie_id'
p824
tp825
Rp826
I71
sg1
(g2
(S'S17'
p827
I0
I1
tp828
Rp829
(I3
S'|'
p830
NNNI17
I1
I0
tp831
bS'company_name.name'
p832
tp833
Rp834
I40
sg1
(g2
(S'S22'
p835
I0
I1
tp836
Rp837
(I3
S'|'
p838
NNNI22
I1
I0
tp839
bS'aka_name.name_pcode_cf'
p840
tp841
Rp842
I4
sg1
(g2
(S'S17'
p843
I0
I1
tp844
Rp845
(I3
S'|'
p846
NNNI17
I1
I0
tp847
bS'comp_cast_type.id'
p848
tp849
Rp850
I34
sg1
(g2
(S'S23'
p851
I0
I1
tp852
Rp853
(I3
S'|'
p854
NNNI23
I1
I0
tp855
bS'complete_cast.status_id'
p856
tp857
Rp858
I47
sg1
(g2
(S'S15'
p859
I0
I1
tp860
Rp861
(I3
S'|'
p862
NNNI15
I1
I0
tp863
bS'name.imdb_index'
p864
tp865
Rp866
I83
s.