(dp0
cnumpy.core.multiarray
scalar
p1
(cnumpy
dtype
p2
(S'S13'
p3
I0
I1
tp4
Rp5
(I3
S'|'
p6
NNNI13
I1
I0
tp7
bS'complete_cast'
p8
tp9
Rp10
I7
sg1
(g2
(S'S11'
p11
I0
I1
tp12
Rp13
(I3
S'|'
p14
NNNI11
I1
I0
tp15
bS'person_info'
p16
tp17
Rp18
I18
sg1
(g2
(S'S13'
p19
I0
I1
tp20
Rp21
(I3
S'|'
p22
NNNI13
I1
I0
tp23
bS'movie_keyword'
p24
tp25
Rp26
I15
sg1
(g2
(S'S7'
p27
I0
I1
tp28
Rp29
(I3
S'|'
p30
NNNI7
I1
I0
tp31
bS'keyword'
p32
tp33
Rp34
I9
sg1
(g2
(S'S9'
p35
I0
I1
tp36
Rp37
(I3
S'|'
p38
NNNI9
I1
I0
tp39
bS'aka_title'
p40
tp41
Rp42
I1
sg1
(g2
(S'S14'
p43
I0
I1
tp44
Rp45
(I3
S'|'
p46
NNNI14
I1
I0
tp47
bS'movie_info_idx'
p48
tp49
Rp50
I14
sg1
(g2
(S'S5'
p51
I0
I1
tp52
Rp53
(I3
S'|'
p54
NNNI5
I1
I0
tp55
bS'title'
p56
tp57
Rp58
I20
sg1
(g2
(S'S12'
p59
I0
I1
tp60
Rp61
(I3
S'|'
p62
NNNI12
I1
I0
tp63
bS'company_type'
p64
tp65
Rp66
I6
sg1
(g2
(S'S9'
p67
I0
I1
tp68
Rp69
(I3
S'|'
p70
NNNI9
I1
I0
tp71
bS'cast_info'
p72
tp73
Rp74
I2
sg1
(g2
(S'S14'
p75
I0
I1
tp76
Rp77
(I3
S'|'
p78
NNNI14
I1
I0
tp79
bS'comp_cast_type'
p80
tp81
Rp82
I4
sg1
(g2
(S'S4'
p83
I0
I1
tp84
Rp85
(I3
S'|'
p86
NNNI4
I1
I0
tp87
bS'name'
p88
tp89
Rp90
I17
sg1
(g2
(S'S9'
p91
I0
I1
tp92
Rp93
(I3
S'|'
p94
NNNI9
I1
I0
tp95
bS'info_type'
p96
tp97
Rp98
I8
sg1
(g2
(S'S9'
p99
I0
I1
tp100
Rp101
(I3
S'|'
p102
NNNI9
I1
I0
tp103
bS'role_type'
p104
tp105
Rp106
I19
sg1
(g2
(S'S12'
p107
I0
I1
tp108
Rp109
(I3
S'|'
p110
NNNI12
I1
I0
tp111
bS'company_name'
p112
tp113
Rp114
I5
sg1
(g2
(S'S10'
p115
I0
I1
tp116
Rp117
(I3
S'|'
p118
NNNI10
I1
I0
tp119
bS'movie_info'
p120
tp121
Rp122
I13
sg1
(g2
(S'S8'
p123
I0
I1
tp124
Rp125
(I3
S'|'
p126
NNNI8
I1
I0
tp127
bS'aka_name'
p128
tp129
Rp130
I0
sg1
(g2
(S'S15'
p131
I0
I1
tp132
Rp133
(I3
S'|'
p134
NNNI15
I1
I0
tp135
bS'movie_companies'
p136
tp137
Rp138
I12
sg1
(g2
(S'S9'
p139
I0
I1
tp140
Rp141
(I3
S'|'
p142
NNNI9
I1
I0
tp143
bS'kind_type'
p144
tp145
Rp146
I10
sg1
(g2
(S'S10'
p147
I0
I1
tp148
Rp149
(I3
S'|'
p150
NNNI10
I1
I0
tp151
bS'movie_link'
p152
tp153
Rp154
I16
sg1
(g2
(S'S9'
p155
I0
I1
tp156
Rp157
(I3
S'|'
p158
NNNI9
I1
I0
tp159
bS'link_type'
p160
tp161
Rp162
I11
sg1
(g2
(S'S9'
p163
I0
I1
tp164
Rp165
(I3
S'|'
p166
NNNI9
I1
I0
tp167
bS'char_name'
p168
tp169
Rp170
I3
s.